target datalayout = "e-m:e-p270:32:32-p271:32:32-p272:64:64-i64:64-i128:128-f80:128-n8:16:32:64-S128"
target triple = "x86_64-pc-linux-gnu"

%"class.tbb::detail::r1::thread_dispatcher" = type { %"class.tbb::detail::r1::rml::tbb_client", %"class.tbb::detail::d1::rw_mutex", [3 x %"class.tbb::detail::r1::intrusive_list"], ptr, i8, ptr, %"struct.std::atomic.0", i32, i64, %"struct.std::atomic.2", ptr }
%"class.tbb::detail::r1::rml::tbb_client" = type { %"class.rml::client" }
%"class.rml::client" = type { %"class.rml::versioned_object" }
%"class.rml::versioned_object" = type { ptr }
%"class.tbb::detail::d1::rw_mutex" = type { %"struct.std::atomic" }
%"struct.std::atomic" = type { %"struct.std::__atomic_base" }
%"struct.std::__atomic_base" = type { i64 }
%"class.tbb::detail::r1::intrusive_list" = type { %"class.tbb::detail::r1::intrusive_list_base" }
%"class.tbb::detail::r1::intrusive_list_base" = type { %"struct.tbb::detail::d1::intrusive_list_node", i64 }
%"struct.tbb::detail::d1::intrusive_list_node" = type { ptr, ptr }
%"struct.std::atomic.0" = type { %"struct.std::__atomic_base.1" }
%"struct.std::__atomic_base.1" = type { i64 }
%"struct.std::atomic.2" = type { %"struct.std::__atomic_base.3" }
%"struct.std::__atomic_base.3" = type { i32 }
%"class.tbb::detail::r1::intrusive_list_base<tbb::detail::r1::intrusive_list<tbb::detail::r1::thread_dispatcher_client>, tbb::detail::r1::thread_dispatcher_client>::iterator_impl" = type { ptr }

; Function Attrs: mustprogress nounwind sspstrong uwtable
define linkonce_odr noundef nonnull align 8 dereferenceable(32) ptr @_ZN3tbb6detail2r114intrusive_listINS1_24thread_dispatcher_clientEE4itemEPNS0_2d119intrusive_list_nodeE(ptr noundef %0) #2 comdat align 2 {
  %2 = alloca ptr, align 8
  store ptr %0, ptr %2, align 8, !tbaa !85
  %3 = load ptr, ptr %2, align 8, !tbaa !85
  ret ptr %3
}

; Function Attrs: mustprogress sspstrong uwtable
define linkonce_odr noundef nonnull align 8 dereferenceable(32) ptr @_ZN3tbb6detail2r119intrusive_list_baseINS1_14intrusive_listINS1_24thread_dispatcher_clientEEES4_E4itemEPNS0_2d119intrusive_list_nodeE(ptr noundef %0) #0 comdat align 2 {
  %2 = alloca ptr, align 8
  store ptr %0, ptr %2, align 8, !tbaa !85
  %3 = load ptr, ptr %2, align 8, !tbaa !85
  %4 = call noundef nonnull align 8 dereferenceable(32) ptr @_ZN3tbb6detail2r114intrusive_listINS1_24thread_dispatcher_clientEE4itemEPNS0_2d119intrusive_list_nodeE(ptr noundef %3)
  ret ptr %4
}

; Function Attrs: mustprogress nounwind sspstrong uwtable
define linkonce_odr void @_ZN3tbb6detail2r119intrusive_list_baseINS1_14intrusive_listINS1_24thread_dispatcher_clientEEES4_E13iterator_implIS4_EC2EPNS0_2d119intrusive_list_nodeE(ptr noundef nonnull align 8 dereferenceable(8) %0, ptr noundef %1) unnamed_addr #2 comdat align 2 {
  %3 = alloca ptr, align 8
  %4 = alloca ptr, align 8
  store ptr %0, ptr %3, align 8, !tbaa !60
  store ptr %1, ptr %4, align 8, !tbaa !85
  %5 = load ptr, ptr %3, align 8
  %6 = getelementptr inbounds nuw %"class.tbb::detail::r1::intrusive_list_base<tbb::detail::r1::intrusive_list<tbb::detail::r1::thread_dispatcher_client>, tbb::detail::r1::thread_dispatcher_client>::iterator_impl", ptr %5, i32 0, i32 0
  %7 = load ptr, ptr %4, align 8, !tbaa !85
  store ptr %7, ptr %6, align 8, !tbaa !62
  ret void
}

; Function Attrs: mustprogress nounwind sspstrong uwtable
define linkonce_odr noundef nonnull align 8 dereferenceable(8) ptr @_ZN3tbb6detail2r119intrusive_list_baseINS1_14intrusive_listINS1_24thread_dispatcher_clientEEES4_E13iterator_implIS4_EppEv(ptr noundef nonnull align 8 dereferenceable(8) %0) #2 comdat align 2 {
  %2 = alloca ptr, align 8
  store ptr %0, ptr %2, align 8, !tbaa !60
  %3 = load ptr, ptr %2, align 8
  %4 = getelementptr inbounds nuw %"class.tbb::detail::r1::intrusive_list_base<tbb::detail::r1::intrusive_list<tbb::detail::r1::thread_dispatcher_client>, tbb::detail::r1::thread_dispatcher_client>::iterator_impl", ptr %3, i32 0, i32 0
  %5 = load ptr, ptr %4, align 8, !tbaa !62
  %6 = getelementptr inbounds nuw %"struct.tbb::detail::d1::intrusive_list_node", ptr %5, i32 0, i32 1
  %7 = load ptr, ptr %6, align 8, !tbaa !80
  %8 = getelementptr inbounds nuw %"class.tbb::detail::r1::intrusive_list_base<tbb::detail::r1::intrusive_list<tbb::detail::r1::thread_dispatcher_client>, tbb::detail::r1::thread_dispatcher_client>::iterator_impl", ptr %3, i32 0, i32 0
  store ptr %7, ptr %8, align 8, !tbaa !62
  ret ptr %3
}

; Function Attrs: mustprogress sspstrong uwtable
define linkonce_odr noundef nonnull align 8 dereferenceable(32) ptr @_ZNK3tbb6detail2r119intrusive_list_baseINS1_14intrusive_listINS1_24thread_dispatcher_clientEEES4_E13iterator_implIS4_EdeEv(ptr noundef nonnull align 8 dereferenceable(8) %0) #0 comdat align 2 {
  %2 = alloca ptr, align 8
  store ptr %0, ptr %2, align 8, !tbaa !60
  %3 = load ptr, ptr %2, align 8
  %4 = getelementptr inbounds nuw %"class.tbb::detail::r1::intrusive_list_base<tbb::detail::r1::intrusive_list<tbb::detail::r1::thread_dispatcher_client>, tbb::detail::r1::thread_dispatcher_client>::iterator_impl", ptr %3, i32 0, i32 0
  %5 = load ptr, ptr %4, align 8, !tbaa !62
  %6 = call noundef nonnull align 8 dereferenceable(32) ptr @_ZN3tbb6detail2r119intrusive_list_baseINS1_14intrusive_listINS1_24thread_dispatcher_clientEEES4_E4itemEPNS0_2d119intrusive_list_nodeE(ptr noundef %5)
  ret ptr %6
}

; Function Attrs: mustprogress nounwind sspstrong uwtable
define linkonce_odr noundef zeroext i1 @_ZNK3tbb6detail2r119intrusive_list_baseINS1_14intrusive_listINS1_24thread_dispatcher_clientEEES4_E13iterator_implIS4_EneERKS8_(ptr noundef nonnull align 8 dereferenceable(8) %0, ptr noundef nonnull align 8 dereferenceable(8) %1) #2 comdat align 2 {
  %3 = alloca ptr, align 8
  %4 = alloca ptr, align 8
  store ptr %0, ptr %3, align 8, !tbaa !60
  store ptr %1, ptr %4, align 8, !tbaa !60
  %5 = load ptr, ptr %3, align 8
  %6 = getelementptr inbounds nuw %"class.tbb::detail::r1::intrusive_list_base<tbb::detail::r1::intrusive_list<tbb::detail::r1::thread_dispatcher_client>, tbb::detail::r1::thread_dispatcher_client>::iterator_impl", ptr %5, i32 0, i32 0
  %7 = load ptr, ptr %6, align 8, !tbaa !62
  %8 = load ptr, ptr %4, align 8, !tbaa !60
  %9 = getelementptr inbounds nuw %"class.tbb::detail::r1::intrusive_list_base<tbb::detail::r1::intrusive_list<tbb::detail::r1::thread_dispatcher_client>, tbb::detail::r1::thread_dispatcher_client>::iterator_impl", ptr %8, i32 0, i32 0
  %10 = load ptr, ptr %9, align 8, !tbaa !62
  %11 = icmp ne ptr %7, %10
  ret i1 %11
}

; Function Attrs: mustprogress sspstrong uwtable
define linkonce_odr ptr @_ZN3tbb6detail2r119intrusive_list_baseINS1_14intrusive_listINS1_24thread_dispatcher_clientEEES4_E3endEv(ptr noundef nonnull align 8 dereferenceable(24) %0) #0 comdat align 2 {
  %2 = alloca %"class.tbb::detail::r1::intrusive_list_base<tbb::detail::r1::intrusive_list<tbb::detail::r1::thread_dispatcher_client>, tbb::detail::r1::thread_dispatcher_client>::iterator_impl", align 8
  %3 = alloca ptr, align 8
  store ptr %0, ptr %3, align 8, !tbaa !56
  %4 = load ptr, ptr %3, align 8
  %5 = getelementptr inbounds nuw %"class.tbb::detail::r1::intrusive_list_base", ptr %4, i32 0, i32 0
  call void @_ZN3tbb6detail2r119intrusive_list_baseINS1_14intrusive_listINS1_24thread_dispatcher_clientEEES4_E13iterator_implIS4_EC2EPNS0_2d119intrusive_list_nodeE(ptr noundef nonnull align 8 dereferenceable(8) %2, ptr noundef %5)
  %6 = getelementptr inbounds nuw %"class.tbb::detail::r1::intrusive_list_base<tbb::detail::r1::intrusive_list<tbb::detail::r1::thread_dispatcher_client>, tbb::detail::r1::thread_dispatcher_client>::iterator_impl", ptr %2, i32 0, i32 0
  %7 = load ptr, ptr %6, align 8
  ret ptr %7
}

; Function Attrs: mustprogress sspstrong uwtable
define linkonce_odr ptr @_ZN3tbb6detail2r119intrusive_list_baseINS1_14intrusive_listINS1_24thread_dispatcher_clientEEES4_E5beginEv(ptr noundef nonnull align 8 dereferenceable(24) %0) #0 comdat align 2 {
  %2 = alloca %"class.tbb::detail::r1::intrusive_list_base<tbb::detail::r1::intrusive_list<tbb::detail::r1::thread_dispatcher_client>, tbb::detail::r1::thread_dispatcher_client>::iterator_impl", align 8
  %3 = alloca ptr, align 8
  store ptr %0, ptr %3, align 8, !tbaa !56
  %4 = load ptr, ptr %3, align 8
  %5 = getelementptr inbounds nuw %"class.tbb::detail::r1::intrusive_list_base", ptr %4, i32 0, i32 0
  %6 = getelementptr inbounds nuw %"struct.tbb::detail::d1::intrusive_list_node", ptr %5, i32 0, i32 1
  %7 = load ptr, ptr %6, align 8, !tbaa !58
  call void @_ZN3tbb6detail2r119intrusive_list_baseINS1_14intrusive_listINS1_24thread_dispatcher_clientEEES4_E13iterator_implIS4_EC2EPNS0_2d119intrusive_list_nodeE(ptr noundef nonnull align 8 dereferenceable(8) %2, ptr noundef %7)
  %8 = getelementptr inbounds nuw %"class.tbb::detail::r1::intrusive_list_base<tbb::detail::r1::intrusive_list<tbb::detail::r1::thread_dispatcher_client>, tbb::detail::r1::thread_dispatcher_client>::iterator_impl", ptr %2, i32 0, i32 0
  %9 = load ptr, ptr %8, align 8
  ret ptr %9
}

; Function Attrs: mustprogress sspstrong uwtable
define noundef zeroext i1 @_ZN3tbb6detail2r117thread_dispatcher15is_client_aliveEPNS1_24thread_dispatcher_clientE(ptr noundef nonnull align 8 dereferenceable(152) %0, ptr noundef %1) #0 align 2 {
  %3 = alloca i1, align 1
  %4 = alloca ptr, align 8
  %5 = alloca ptr, align 8
  %6 = alloca ptr, align 8
  %7 = alloca ptr, align 8
  %8 = alloca ptr, align 8
  %9 = alloca i32, align 4
  %10 = alloca ptr, align 8
  %11 = alloca ptr, align 8
  %12 = alloca %"class.tbb::detail::r1::intrusive_list_base<tbb::detail::r1::intrusive_list<tbb::detail::r1::thread_dispatcher_client>, tbb::detail::r1::thread_dispatcher_client>::iterator_impl", align 8
  %13 = alloca %"class.tbb::detail::r1::intrusive_list_base<tbb::detail::r1::intrusive_list<tbb::detail::r1::thread_dispatcher_client>, tbb::detail::r1::thread_dispatcher_client>::iterator_impl", align 8
  %14 = alloca ptr, align 8
  store ptr %0, ptr %4, align 8, !tbaa !3
  store ptr %1, ptr %5, align 8, !tbaa !48
  %15 = load ptr, ptr %4, align 8
  %16 = load ptr, ptr %5, align 8, !tbaa !48
  %17 = icmp ne ptr %16, null
  br i1 %17, label %19, label %18

18:                                               ; preds = %2
  store i1 false, ptr %3, align 1
  br label %67

19:                                               ; preds = %2
  call void @llvm.lifetime.start.p0(i64 8, ptr %6) #11
  %20 = getelementptr inbounds nuw %"class.tbb::detail::r1::thread_dispatcher", ptr %15, i32 0, i32 2
  store ptr %20, ptr %6, align 8, !tbaa !39
  call void @llvm.lifetime.start.p0(i64 8, ptr %7) #11
  %21 = load ptr, ptr %6, align 8, !tbaa !39
  %22 = getelementptr inbounds [3 x %"class.tbb::detail::r1::intrusive_list"], ptr %21, i64 0, i64 0
  store ptr %22, ptr %7, align 8, !tbaa !39
  call void @llvm.lifetime.start.p0(i64 8, ptr %8) #11
  %23 = load ptr, ptr %6, align 8, !tbaa !39
  %24 = getelementptr inbounds [3 x %"class.tbb::detail::r1::intrusive_list"], ptr %23, i64 0, i64 0
  %25 = getelementptr inbounds %"class.tbb::detail::r1::intrusive_list", ptr %24, i64 3
  store ptr %25, ptr %8, align 8, !tbaa !39
  br label %26

26:                                               ; preds = %61, %19
  %27 = load ptr, ptr %7, align 8, !tbaa !39
  %28 = load ptr, ptr %8, align 8, !tbaa !39
  %29 = icmp ne ptr %27, %28
  br i1 %29, label %31, label %30

30:                                               ; preds = %26
  store i32 2, ptr %9, align 4
  br label %64

31:                                               ; preds = %26
  call void @llvm.lifetime.start.p0(i64 8, ptr %10) #11
  %32 = load ptr, ptr %7, align 8, !tbaa !39
  store ptr %32, ptr %10, align 8, !tbaa !39
  call void @llvm.lifetime.start.p0(i64 8, ptr %11) #11
  %33 = load ptr, ptr %10, align 8, !tbaa !39
  store ptr %33, ptr %11, align 8, !tbaa !39
  call void @llvm.lifetime.start.p0(i64 8, ptr %12) #11
  %34 = load ptr, ptr %11, align 8, !tbaa !39
  %35 = call ptr @_ZN3tbb6detail2r119intrusive_list_baseINS1_14intrusive_listINS1_24thread_dispatcher_clientEEES4_E5beginEv(ptr noundef nonnull align 8 dereferenceable(24) %34)
  %36 = getelementptr inbounds nuw %"class.tbb::detail::r1::intrusive_list_base<tbb::detail::r1::intrusive_list<tbb::detail::r1::thread_dispatcher_client>, tbb::detail::r1::thread_dispatcher_client>::iterator_impl", ptr %12, i32 0, i32 0
  store ptr %35, ptr %36, align 8
  call void @llvm.lifetime.start.p0(i64 8, ptr %13) #11
  %37 = load ptr, ptr %11, align 8, !tbaa !39
  %38 = call ptr @_ZN3tbb6detail2r119intrusive_list_baseINS1_14intrusive_listINS1_24thread_dispatcher_clientEEES4_E3endEv(ptr noundef nonnull align 8 dereferenceable(24) %37)
  %39 = getelementptr inbounds nuw %"class.tbb::detail::r1::intrusive_list_base<tbb::detail::r1::intrusive_list<tbb::detail::r1::thread_dispatcher_client>, tbb::detail::r1::thread_dispatcher_client>::iterator_impl", ptr %13, i32 0, i32 0
  store ptr %38, ptr %39, align 8
  br label %40

40:                                               ; preds = %53, %31
  %41 = call noundef zeroext i1 @_ZNK3tbb6detail2r119intrusive_list_baseINS1_14intrusive_listINS1_24thread_dispatcher_clientEEES4_E13iterator_implIS4_EneERKS8_(ptr noundef nonnull align 8 dereferenceable(8) %12, ptr noundef nonnull align 8 dereferenceable(8) %13)
  br i1 %41, label %43, label %42

42:                                               ; preds = %40
  store i32 4, ptr %9, align 4
  br label %55

43:                                               ; preds = %40
  call void @llvm.lifetime.start.p0(i64 8, ptr %14) #11
  %44 = call noundef nonnull align 8 dereferenceable(32) ptr @_ZNK3tbb6detail2r119intrusive_list_baseINS1_14intrusive_listINS1_24thread_dispatcher_clientEEES4_E13iterator_implIS4_EdeEv(ptr noundef nonnull align 8 dereferenceable(8) %12)
  store ptr %44, ptr %14, align 8, !tbaa !48
  %45 = load ptr, ptr %5, align 8, !tbaa !48
  %46 = load ptr, ptr %14, align 8, !tbaa !48
  %47 = icmp eq ptr %45, %46
  br i1 %47, label %48, label %49

48:                                               ; preds = %43
  store i1 true, ptr %3, align 1
  store i32 1, ptr %9, align 4
  br label %50

49:                                               ; preds = %43
  store i32 0, ptr %9, align 4
  br label %50

50:                                               ; preds = %49, %48
  call void @llvm.lifetime.end.p0(i64 8, ptr %14) #11
  %51 = load i32, ptr %9, align 4
  switch i32 %51, label %55 [
    i32 0, label %52
  ]

52:                                               ; preds = %50
  br label %53

53:                                               ; preds = %52
  %54 = call noundef nonnull align 8 dereferenceable(8) ptr @_ZN3tbb6detail2r119intrusive_list_baseINS1_14intrusive_listINS1_24thread_dispatcher_clientEEES4_E13iterator_implIS4_EppEv(ptr noundef nonnull align 8 dereferenceable(8) %12)
  br label %40

55:                                               ; preds = %50, %42
  call void @llvm.lifetime.end.p0(i64 8, ptr %13) #11
  call void @llvm.lifetime.end.p0(i64 8, ptr %12) #11
  call void @llvm.lifetime.end.p0(i64 8, ptr %11) #11
  %56 = load i32, ptr %9, align 4
  switch i32 %56, label %58 [
    i32 4, label %57
  ]

57:                                               ; preds = %55
  store i32 0, ptr %9, align 4
  br label %58

58:                                               ; preds = %57, %55
  call void @llvm.lifetime.end.p0(i64 8, ptr %10) #11
  %59 = load i32, ptr %9, align 4
  switch i32 %59, label %64 [
    i32 0, label %60
  ]

60:                                               ; preds = %58
  br label %61

61:                                               ; preds = %60
  %62 = load ptr, ptr %7, align 8, !tbaa !39
  %63 = getelementptr inbounds nuw %"class.tbb::detail::r1::intrusive_list", ptr %62, i32 1
  store ptr %63, ptr %7, align 8, !tbaa !39
  br label %26

64:                                               ; preds = %58, %30
  call void @llvm.lifetime.end.p0(i64 8, ptr %8) #11
  call void @llvm.lifetime.end.p0(i64 8, ptr %7) #11
  call void @llvm.lifetime.end.p0(i64 8, ptr %6) #11
  %65 = load i32, ptr %9, align 4
  switch i32 %65, label %69 [
    i32 2, label %66
    i32 1, label %67
  ]

66:                                               ; preds = %64
  store i1 false, ptr %3, align 1
  br label %67

67:                                               ; preds = %66, %64, %18
  %68 = load i1, ptr %3, align 1
  ret i1 %68

69:                                               ; preds = %64
  unreachable
}