; Function Attrs: mustprogress nofree norecurse nosync nounwind sspstrong willreturn memory(read, inaccessiblemem: none) uwtable
define noundef zeroext i1 @_ZN3tbb6detail2r117thread_dispatcher15is_client_aliveEPNS1_24thread_dispatcher_clientE(ptr noundef nonnull readonly align 8 dereferenceable(152) %0, ptr noundef readnone %1) local_unnamed_addr #7 align 2 {
  %.not = icmp eq ptr %1, null
  br i1 %.not, label %.thread, label %.preheader

.preheader:                                       ; preds = %2, %5
  %.019.idx34 = phi i64 [ %.019.add, %5 ], [ 16, %2 ]
  %.019.ptr = getelementptr inbounds nuw i8, ptr %0, i64 %.019.idx34
  br label %3

3:                                                ; preds = %4, %.preheader
  %.019.ptr.pn = phi ptr [ %.019.ptr, %.preheader ], [ %.sroa.027.0, %4 ]
  %.sroa.027.0.in = getelementptr inbounds nuw i8, ptr %.019.ptr.pn, i64 8
  %.sroa.027.0 = load ptr, ptr %.sroa.027.0.in, align 8, !tbaa !83
  %.not31 = icmp eq ptr %.sroa.027.0, %.019.ptr
  br i1 %.not31, label %5, label %4

4:                                                ; preds = %3
  %.not26 = icmp eq ptr %1, %.sroa.027.0
  br i1 %.not26, label %.thread, label %3

5:                                                ; preds = %3
  %.019.add = add nuw nsw i64 %.019.idx34, 24
  %.not24.not = icmp eq i64 %.019.add, 88
  br i1 %.not24.not, label %.thread, label %.preheader

.thread:                                          ; preds = %5, %4, %2
  %.0 = phi i1 [ false, %2 ], [ true, %4 ], [ false, %5 ]
  ret i1 %.0
}